target datalayout = "e-m:e-p270:32:32-p271:32:32-p272:64:64-i64:64-i128:128-f80:128-n8:16:32:64-S128"
target triple = "x86_64-pc-linux-gnu"

%"struct.Luau::Nth" = type { i32, i32 }
%"struct.Luau::FindNthOccurenceOf" = type { %"class.Luau::AstVisitor", %"struct.Luau::Nth", i32, ptr }
%"class.Luau::AstVisitor" = type { ptr }
%"class.Luau::AstNode" = type <{ ptr, i32, %"struct.Luau::Location", [4 x i8] }>
%"struct.Luau::Location" = type { %"struct.Luau::Position", %"struct.Luau::Position" }
%"struct.Luau::Position" = type { i32, i32 }

; Function Attrs: mustprogress nounwind uwtable
define dso_local noundef zeroext i1 @_ZN4Luau18FindNthOccurenceOf7checkItEPNS_7AstNodeE(ptr noundef nonnull align 8 dereferenceable(32) %0, ptr noundef %1) #1 align 2 {
  %3 = alloca i1, align 1
  %4 = alloca ptr, align 8
  %5 = alloca ptr, align 8
  store ptr %0, ptr %4, align 8
  store ptr %1, ptr %5, align 8
  %6 = load ptr, ptr %4, align 8
  %7 = getelementptr inbounds %"struct.Luau::FindNthOccurenceOf", ptr %6, i32 0, i32 3
  %8 = load ptr, ptr %7, align 8
  %9 = icmp ne ptr %8, null
  br i1 %9, label %10, label %11

10:                                               ; preds = %2
  store i1 false, ptr %3, align 1
  br label %40

11:                                               ; preds = %2
  %12 = load ptr, ptr %5, align 8
  %13 = getelementptr inbounds %"class.Luau::AstNode", ptr %12, i32 0, i32 1
  %14 = load i32, ptr %13, align 8
  %15 = getelementptr inbounds %"struct.Luau::FindNthOccurenceOf", ptr %6, i32 0, i32 1
  %16 = getelementptr inbounds %"struct.Luau::Nth", ptr %15, i32 0, i32 0
  %17 = load i32, ptr %16, align 8
  %18 = icmp eq i32 %14, %17
  br i1 %18, label %19, label %35

19:                                               ; preds = %11
  %20 = getelementptr inbounds %"struct.Luau::FindNthOccurenceOf", ptr %6, i32 0, i32 2
  %21 = load i32, ptr %20, align 8
  %22 = add nsw i32 %21, 1
  %23 = getelementptr inbounds %"struct.Luau::FindNthOccurenceOf", ptr %6, i32 0, i32 1
  %24 = getelementptr inbounds %"struct.Luau::Nth", ptr %23, i32 0, i32 1
  %25 = load i32, ptr %24, align 4
  %26 = icmp ne i32 %22, %25
  br i1 %26, label %27, label %31

27:                                               ; preds = %19
  %28 = getelementptr inbounds %"struct.Luau::FindNthOccurenceOf", ptr %6, i32 0, i32 2
  %29 = load i32, ptr %28, align 8
  %30 = add nsw i32 %29, 1
  store i32 %30, ptr %28, align 8
  br label %34

31:                                               ; preds = %19
  %32 = load ptr, ptr %5, align 8
  %33 = getelementptr inbounds %"struct.Luau::FindNthOccurenceOf", ptr %6, i32 0, i32 3
  store ptr %32, ptr %33, align 8
  br label %34

34:                                               ; preds = %31, %27
  br label %35

35:                                               ; preds = %34, %11
  %36 = getelementptr inbounds %"struct.Luau::FindNthOccurenceOf", ptr %6, i32 0, i32 3
  %37 = load ptr, ptr %36, align 8
  %38 = icmp ne ptr %37, null
  %39 = xor i1 %38, true
  store i1 %39, ptr %3, align 1
  br label %40

40:                                               ; preds = %35, %10
  %41 = load i1, ptr %3, align 1
  ret i1 %41
}